target datalayout = "e-m:e-p270:32:32-p271:32:32-p272:64:64-i64:64-i128:128-f80:128-n8:16:32:64-S128"
target triple = "x86_64-pc-linux-gnu"

%struct._zval_struct = type { %union._zend_value, %union.anon, %union.anon.2 }
%union._zend_value = type { i64 }
%union.anon = type { i32 }
%union.anon.2 = type { i32 }
%struct._zend_array = type { %struct._zend_refcounted_h, %union.anon.4, i32, %union.anon.6, i32, i32, i32, i32, i64, ptr }
%struct._zend_refcounted_h = type { i32, %union.anon.3 }
%union.anon.3 = type { i32 }
%union.anon.4 = type { i32 }
%union.anon.6 = type { ptr }
%struct._zend_phpdbg_globals = type { [11 x %struct._zend_array], %struct._zend_array, %struct._zend_array, ptr, ptr, %struct.phpdbg_frame_t, i32, ptr, %struct.phpdbg_lexer_data, ptr, %struct.sigaction, i32, i64, %struct.phpdbg_btree, %struct.phpdbg_btree, %struct._zend_array, %struct._zend_array, %struct._zend_array, %struct._zend_array, ptr, ptr, ptr, i8, ptr, ptr, ptr, i64, ptr, %struct._zval_struct, i32, i32, i8, i8, ptr, ptr, ptr, %struct._zend_array, ptr, ptr, ptr, [3 x %struct.anon.9], ptr, %struct.anon.10, i64, [2 x ptr], [3 x ptr], ptr, i8, ptr, ptr, [500 x i8], i32, %struct.phpdbg_signal_safe_mem, ptr, i64, ptr, i64 }
%struct.phpdbg_frame_t = type { i32, ptr, ptr }
%struct.phpdbg_lexer_data = type { i32, ptr, ptr, ptr, ptr, i32 }
%struct.sigaction = type { %union.anon.8, %struct.__sigset_t, i32, ptr }
%union.anon.8 = type { ptr }
%struct.__sigset_t = type { [16 x i64] }
%struct.phpdbg_btree = type { i64, i64, i8, ptr }
%struct.anon.9 = type { i32 }
%struct.anon.10 = type { i8, i32, i32, ptr, i32 }
%struct.phpdbg_signal_safe_mem = type { ptr, i8, ptr, ptr }
%struct.stat = type { i64, i64, i64, i32, i32, i32, i32, i64, i64, i64, i64, %struct.timespec, %struct.timespec, %struct.timespec, [3 x i64] }
%struct.timespec = type { i64, i64 }
%struct._php_stream = type { ptr, ptr, %struct._php_stream_filter_chain, %struct._php_stream_filter_chain, ptr, ptr, %struct._zval_struct, i16, [16 x i8], i32, ptr, ptr, ptr, ptr, i64, ptr, i64, i64, i64, i64, ptr }
%struct._php_stream_filter_chain = type { ptr, ptr, ptr }
%struct.php_stdio_stream_data = type { ptr, i32 }

@phpdbg_globals = hidden global %struct._zend_phpdbg_globals zeroinitializer, align 8
@stdout = external global ptr, align 8
@stderr = external global ptr, align 8
@.str.109 = private unnamed_addr constant [5 x i8] c"%.*s\00", align 1

; Function Attrs: nounwind uwtable
define internal i64 @phpdbg_stdiop_write(ptr noundef %0, ptr noundef %1, i64 noundef %2) #0 {
  %4 = alloca i64, align 8
  %5 = alloca ptr, align 8
  %6 = alloca ptr, align 8
  %7 = alloca i64, align 8
  %8 = alloca ptr, align 8
  %9 = alloca [3 x %struct.stat], align 16
  %10 = alloca i32, align 4
  %11 = alloca i32, align 4
  %12 = alloca i32, align 4
  %13 = alloca i32, align 4
  store ptr %0, ptr %5, align 8, !tbaa !153
  store ptr %1, ptr %6, align 8, !tbaa !75
  store i64 %2, ptr %7, align 8, !tbaa !76
  call void @llvm.lifetime.start.p0(i64 8, ptr %8) #22
  %14 = load ptr, ptr %5, align 8, !tbaa !153
  %15 = getelementptr inbounds nuw %struct._php_stream, ptr %14, i32 0, i32 1
  %16 = load ptr, ptr %15, align 8, !tbaa !271
  store ptr %16, ptr %8, align 8, !tbaa !118
  br label %17

17:                                               ; preds = %3
  %18 = load ptr, ptr %8, align 8, !tbaa !118
  %19 = getelementptr inbounds nuw %struct.php_stdio_stream_data, ptr %18, i32 0, i32 1
  %20 = load i32, ptr %19, align 8, !tbaa !272
  %21 = icmp sge i32 %20, 0
  br i1 %21, label %22, label %95

22:                                               ; preds = %17
  call void @llvm.lifetime.start.p0(i64 432, ptr %9) #22
  %23 = getelementptr inbounds [3 x %struct.stat], ptr %9, i64 0, i64 0
  call void @llvm.memset.p0.i64(ptr align 16 %23, i8 0, i64 432, i1 false)
  call void @llvm.lifetime.start.p0(i64 4, ptr %10) #22
  %24 = load ptr, ptr @stderr, align 8, !tbaa !199
  %25 = call i32 @fileno(ptr noundef %24) #22
  %26 = getelementptr inbounds [3 x %struct.stat], ptr %9, i64 0, i64 2
  %27 = call i32 @fstat(i32 noundef %25, ptr noundef %26) #22
  store i32 %27, ptr %10, align 4, !tbaa !98
  call void @llvm.lifetime.start.p0(i64 4, ptr %11) #22
  %28 = load ptr, ptr @stdout, align 8, !tbaa !199
  %29 = call i32 @fileno(ptr noundef %28) #22
  %30 = getelementptr inbounds [3 x %struct.stat], ptr %9, i64 0, i64 0
  %31 = call i32 @fstat(i32 noundef %29, ptr noundef %30) #22
  store i32 %31, ptr %11, align 4, !tbaa !98
  call void @llvm.lifetime.start.p0(i64 4, ptr %12) #22
  %32 = load ptr, ptr %8, align 8, !tbaa !118
  %33 = getelementptr inbounds nuw %struct.php_stdio_stream_data, ptr %32, i32 0, i32 1
  %34 = load i32, ptr %33, align 8, !tbaa !272
  %35 = getelementptr inbounds [3 x %struct.stat], ptr %9, i64 0, i64 1
  %36 = call i32 @fstat(i32 noundef %34, ptr noundef %35) #22
  store i32 %36, ptr %12, align 4, !tbaa !98
  %37 = load i32, ptr %10, align 4, !tbaa !98
  %38 = icmp slt i32 %37, 0
  br i1 %38, label %39, label %42

39:                                               ; preds = %22
  %40 = load i32, ptr %11, align 4, !tbaa !98
  %41 = icmp slt i32 %40, 0
  br i1 %41, label %45, label %42

42:                                               ; preds = %39, %22
  %43 = load i32, ptr %12, align 4, !tbaa !98
  %44 = icmp slt i32 %43, 0
  br i1 %44, label %45, label %46

45:                                               ; preds = %42, %39
  store i32 3, ptr %13, align 4
  br label %93

46:                                               ; preds = %42
  %47 = getelementptr inbounds [3 x %struct.stat], ptr %9, i64 0, i64 0
  %48 = getelementptr inbounds nuw %struct.stat, ptr %47, i32 0, i32 0
  %49 = load i64, ptr %48, align 16, !tbaa !274
  %50 = getelementptr inbounds [3 x %struct.stat], ptr %9, i64 0, i64 1
  %51 = getelementptr inbounds nuw %struct.stat, ptr %50, i32 0, i32 0
  %52 = load i64, ptr %51, align 16, !tbaa !274
  %53 = icmp eq i64 %49, %52
  br i1 %53, label %54, label %69

54:                                               ; preds = %46
  %55 = getelementptr inbounds [3 x %struct.stat], ptr %9, i64 0, i64 0
  %56 = getelementptr inbounds nuw %struct.stat, ptr %55, i32 0, i32 1
  %57 = load i64, ptr %56, align 8, !tbaa !275
  %58 = getelementptr inbounds [3 x %struct.stat], ptr %9, i64 0, i64 1
  %59 = getelementptr inbounds nuw %struct.stat, ptr %58, i32 0, i32 1
  %60 = load i64, ptr %59, align 8, !tbaa !275
  %61 = icmp eq i64 %57, %60
  br i1 %61, label %62, label %69

62:                                               ; preds = %54
  %63 = load i32, ptr getelementptr inbounds ([3 x %struct.anon.9], ptr getelementptr inbounds nuw (%struct._zend_phpdbg_globals, ptr @phpdbg_globals, i32 0, i32 40), i64 0, i64 1), align 4, !tbaa !203
  %64 = load i64, ptr %7, align 8, !tbaa !76
  %65 = trunc i64 %64 to i32
  %66 = load ptr, ptr %6, align 8, !tbaa !75
  %67 = call i32 (i32, i32, ptr, ...) @phpdbg_print(i32 noundef 5, i32 noundef %63, ptr noundef @.str.109, i32 noundef %65, ptr noundef %66)
  %68 = load i64, ptr %7, align 8, !tbaa !76
  store i64 %68, ptr %4, align 8
  store i32 1, ptr %13, align 4
  br label %93

69:                                               ; preds = %54, %46
  %70 = getelementptr inbounds [3 x %struct.stat], ptr %9, i64 0, i64 2
  %71 = getelementptr inbounds nuw %struct.stat, ptr %70, i32 0, i32 0
  %72 = load i64, ptr %71, align 16, !tbaa !274
  %73 = getelementptr inbounds [3 x %struct.stat], ptr %9, i64 0, i64 1
  %74 = getelementptr inbounds nuw %struct.stat, ptr %73, i32 0, i32 0
  %75 = load i64, ptr %74, align 16, !tbaa !274
  %76 = icmp eq i64 %72, %75
  br i1 %76, label %77, label %92

77:                                               ; preds = %69
  %78 = getelementptr inbounds [3 x %struct.stat], ptr %9, i64 0, i64 2
  %79 = getelementptr inbounds nuw %struct.stat, ptr %78, i32 0, i32 1
  %80 = load i64, ptr %79, align 8, !tbaa !275
  %81 = getelementptr inbounds [3 x %struct.stat], ptr %9, i64 0, i64 1
  %82 = getelementptr inbounds nuw %struct.stat, ptr %81, i32 0, i32 1
  %83 = load i64, ptr %82, align 8, !tbaa !275
  %84 = icmp eq i64 %80, %83
  br i1 %84, label %85, label %92

85:                                               ; preds = %77
  %86 = load i32, ptr getelementptr inbounds ([3 x %struct.anon.9], ptr getelementptr inbounds nuw (%struct._zend_phpdbg_globals, ptr @phpdbg_globals, i32 0, i32 40), i64 0, i64 1), align 4, !tbaa !203
  %87 = load i64, ptr %7, align 8, !tbaa !76
  %88 = trunc i64 %87 to i32
  %89 = load ptr, ptr %6, align 8, !tbaa !75
  %90 = call i32 (i32, i32, ptr, ...) @phpdbg_print(i32 noundef 6, i32 noundef %86, ptr noundef @.str.109, i32 noundef %88, ptr noundef %89)
  %91 = load i64, ptr %7, align 8, !tbaa !76
  store i64 %91, ptr %4, align 8
  store i32 1, ptr %13, align 4
  br label %93

92:                                               ; preds = %77, %69
  store i32 3, ptr %13, align 4
  br label %93

93:                                               ; preds = %92, %85, %62, %45
  call void @llvm.lifetime.end.p0(i64 4, ptr %12) #22
  call void @llvm.lifetime.end.p0(i64 4, ptr %11) #22
  call void @llvm.lifetime.end.p0(i64 4, ptr %10) #22
  call void @llvm.lifetime.end.p0(i64 432, ptr %9) #22
  %94 = load i32, ptr %13, align 4
  switch i32 %94, label %101 [
    i32 3, label %95
  ]

95:                                               ; preds = %93, %17
  %96 = load ptr, ptr getelementptr inbounds nuw (%struct._zend_phpdbg_globals, ptr @phpdbg_globals, i32 0, i32 41), align 8, !tbaa !223
  %97 = load ptr, ptr %5, align 8, !tbaa !153
  %98 = load ptr, ptr %6, align 8, !tbaa !75
  %99 = load i64, ptr %7, align 8, !tbaa !76
  %100 = call i64 %96(ptr noundef %97, ptr noundef %98, i64 noundef %99)
  store i64 %100, ptr %4, align 8
  store i32 1, ptr %13, align 4
  br label %101

101:                                              ; preds = %95, %93
  call void @llvm.lifetime.end.p0(i64 8, ptr %8) #22
  %102 = load i64, ptr %4, align 8
  ret i64 %102
}