; Function Attrs: nounwind uwtable
define internal i64 @phpdbg_stdiop_write(ptr noundef %0, ptr noundef %1, i64 noundef %2) #0 {
  %4 = alloca [3 x %struct.stat], align 16
  %5 = getelementptr inbounds nuw i8, ptr %0, i64 8
  %6 = load ptr, ptr %5, align 8, !tbaa !249
  %7 = getelementptr inbounds nuw i8, ptr %6, i64 8
  %8 = load i32, ptr %7, align 8, !tbaa !250
  %9 = icmp sgt i32 %8, -1
  br i1 %9, label %10, label %43

10:                                               ; preds = %3
  call void @llvm.lifetime.start.p0(i64 432, ptr nonnull %4) #27
  call void @llvm.memset.p0.i64(ptr noundef nonnull align 16 dereferenceable(432) %4, i8 0, i64 432, i1 false)
  %11 = load ptr, ptr @stderr, align 8, !tbaa !200
  %12 = tail call i32 @fileno(ptr noundef %11) #27
  %13 = getelementptr inbounds nuw i8, ptr %4, i64 288
  %14 = call i32 @fstat(i32 noundef %12, ptr noundef nonnull %13) #27
  %15 = load ptr, ptr @stdout, align 8, !tbaa !200
  %16 = tail call i32 @fileno(ptr noundef %15) #27
  %17 = call i32 @fstat(i32 noundef %16, ptr noundef nonnull %4) #27
  %18 = load i32, ptr %7, align 8, !tbaa !250
  %19 = getelementptr inbounds nuw i8, ptr %4, i64 144
  %20 = call i32 @fstat(i32 noundef %18, ptr noundef nonnull %19) #27
  %21 = and i32 %17, %14
  %22 = or i32 %20, %21
  %or.cond3.not = icmp sgt i32 %22, -1
  br i1 %or.cond3.not, label %23, label %42

23:                                               ; preds = %10
  %24 = load i64, ptr %4, align 16, !tbaa !252
  %25 = load i64, ptr %19, align 16, !tbaa !252
  %26 = icmp eq i64 %24, %25
  br i1 %26, label %27, label %33

27:                                               ; preds = %23
  %28 = getelementptr inbounds nuw i8, ptr %4, i64 8
  %29 = load i64, ptr %28, align 8, !tbaa !253
  %30 = getelementptr inbounds nuw i8, ptr %4, i64 152
  %31 = load i64, ptr %30, align 8, !tbaa !253
  %32 = icmp eq i64 %29, %31
  br i1 %32, label %.critedge, label %33

33:                                               ; preds = %27, %23
  %34 = load i64, ptr %13, align 16, !tbaa !252
  %35 = icmp eq i64 %34, %25
  br i1 %35, label %36, label %42

36:                                               ; preds = %33
  %37 = getelementptr inbounds nuw i8, ptr %4, i64 296
  %38 = load i64, ptr %37, align 8, !tbaa !253
  %39 = getelementptr inbounds nuw i8, ptr %4, i64 152
  %40 = load i64, ptr %39, align 8, !tbaa !253
  %41 = icmp eq i64 %38, %40
  br i1 %41, label %.critedge, label %42

42:                                               ; preds = %33, %36, %10
  call void @llvm.lifetime.end.p0(i64 432, ptr nonnull %4) #27
  br label %43

43:                                               ; preds = %42, %3
  %44 = load ptr, ptr getelementptr inbounds nuw (i8, ptr @phpdbg_globals, i64 1520), align 8, !tbaa !224
  %45 = tail call i64 %44(ptr noundef nonnull %0, ptr noundef %1, i64 noundef %2) #27
  br label %49

.critedge:                                        ; preds = %36, %27
  %.sink = phi i32 [ 5, %27 ], [ 6, %36 ]
  %46 = load i32, ptr getelementptr inbounds nuw (i8, ptr @phpdbg_globals, i64 1508), align 4, !tbaa !205
  %47 = trunc i64 %2 to i32
  %48 = tail call i32 (i32, i32, ptr, ...) @phpdbg_print(i32 noundef %.sink, i32 noundef %46, ptr noundef nonnull @.str.109, i32 noundef %47, ptr noundef %1) #27
  call void @llvm.lifetime.end.p0(i64 432, ptr nonnull %4) #27
  br label %49

49:                                               ; preds = %.critedge, %43
  %.1 = phi i64 [ %45, %43 ], [ %2, %.critedge ]
  ret i64 %.1
}